; Function Attrs: mustprogress uwtable
define void @_ZN7httplib6detail13base64_encodeERKNSt7__cxx1112basic_stringIcSt11char_traitsIcESaIcEEE(ptr noalias nonnull sret(%"class.std::__cxx11::basic_string") align 8 %agg.result, ptr noundef nonnull align 8 dereferenceable(32) %in) local_unnamed_addr #5 personality ptr @__gxx_personality_v0 {
entry:
  tail call void @_ZNSt7__cxx1112basic_stringIcSt11char_traitsIcESaIcEEC1Ev(ptr noundef nonnull align 8 dereferenceable(32) %agg.result) #37
  %call = tail call noundef i64 @_ZNKSt7__cxx1112basic_stringIcSt11char_traitsIcESaIcEE4sizeEv(ptr noundef nonnull align 8 dereferenceable(32) %in) #37
  invoke void @_ZNSt7__cxx1112basic_stringIcSt11char_traitsIcESaIcEE7reserveEm(ptr noundef nonnull align 8 dereferenceable(32) %agg.result, i64 noundef %call)
          to label %invoke.cont unwind label %lpad.loopexit.split-lp.loopexit.split-lp

invoke.cont:                                      ; preds = %entry
  %call1 = tail call ptr @_ZNKSt7__cxx1112basic_stringIcSt11char_traitsIcESaIcEE5beginEv(ptr noundef nonnull align 8 dereferenceable(32) %in) #37
  %call2 = tail call ptr @_ZNKSt7__cxx1112basic_stringIcSt11char_traitsIcESaIcEE3endEv(ptr noundef nonnull align 8 dereferenceable(32) %in) #37
  %cmp.i.not22 = icmp eq ptr %call1, %call2
  br i1 %cmp.i.not22, label %while.cond17.preheader, label %for.body

for.body:                                         ; preds = %invoke.cont, %for.inc
  %val.025 = phi i32 [ %add, %for.inc ], [ 0, %invoke.cont ]
  %valb.024 = phi i32 [ %valb.1.lcssa, %for.inc ], [ -6, %invoke.cont ]
  %__begin2.sroa.0.023 = phi ptr [ %incdec.ptr.i, %for.inc ], [ %call1, %invoke.cont ]
  %0 = load i8, ptr %__begin2.sroa.0.023, align 1
  %shl = shl i32 %val.025, 8
  %conv = zext i8 %0 to i32
  %add = or disjoint i32 %shl, %conv
  %add6 = add nsw i32 %valb.024, 8
  %cmp20 = icmp sgt i32 %valb.024, -9
  br i1 %cmp20, label %while.body, label %for.inc

while.body:                                       ; preds = %for.body, %invoke.cont7
  %valb.121 = phi i32 [ %sub, %invoke.cont7 ], [ %add6, %for.body ]
  %shr = ashr i32 %add, %valb.121
  %and = and i32 %shr, 63
  %idxprom = zext nneg i32 %and to i64
  %arrayidx = getelementptr inbounds i8, ptr @.str.1, i64 %idxprom
  %1 = load i8, ptr %arrayidx, align 1
  invoke void @_ZNSt7__cxx1112basic_stringIcSt11char_traitsIcESaIcEE9push_backEc(ptr noundef nonnull align 8 dereferenceable(32) %agg.result, i8 noundef signext %1)
          to label %invoke.cont7 unwind label %lpad.loopexit.split-lp.loopexit

invoke.cont7:                                     ; preds = %while.body
  %sub = add nsw i32 %valb.121, -6
  %cmp = icmp ugt i32 %valb.121, 5
  br i1 %cmp, label %while.body, label %for.inc, !llvm.loop !7

lpad.loopexit:                                    ; preds = %while.body19
  %lpad.loopexit12 = landingpad { ptr, i32 }
          cleanup
  br label %lpad

lpad.loopexit.split-lp.loopexit:                  ; preds = %while.body
  %lpad.loopexit14 = landingpad { ptr, i32 }
          cleanup
  br label %lpad

lpad.loopexit.split-lp.loopexit.split-lp:         ; preds = %if.then, %entry
  %lpad.loopexit.split-lp15 = landingpad { ptr, i32 }
          cleanup
  br label %lpad

lpad:                                             ; preds = %lpad.loopexit.split-lp.loopexit, %lpad.loopexit.split-lp.loopexit.split-lp, %lpad.loopexit
  %lpad.phi = phi { ptr, i32 } [ %lpad.loopexit12, %lpad.loopexit ], [ %lpad.loopexit14, %lpad.loopexit.split-lp.loopexit ], [ %lpad.loopexit.split-lp15, %lpad.loopexit.split-lp.loopexit.split-lp ]
  tail call void @_ZNSt7__cxx1112basic_stringIcSt11char_traitsIcESaIcEED1Ev(ptr noundef nonnull align 8 dereferenceable(32) %agg.result) #37
  resume { ptr, i32 } %lpad.phi

for.inc:                                          ; preds = %invoke.cont7, %for.body
  %valb.1.lcssa = phi i32 [ %add6, %for.body ], [ %sub, %invoke.cont7 ]
  %incdec.ptr.i = getelementptr inbounds i8, ptr %__begin2.sroa.0.023, i64 1
  %cmp.i.not = icmp eq ptr %incdec.ptr.i, %call2
  br i1 %cmp.i.not, label %for.end, label %for.body

for.end:                                          ; preds = %for.inc
  %cmp9 = icmp ugt i32 %valb.1.lcssa, -6
  br i1 %cmp9, label %if.then, label %while.cond17.preheader

if.then:                                          ; preds = %for.end
  %2 = shl i32 %add, 8
  %add11 = add nsw i32 %valb.1.lcssa, 8
  %shr12 = ashr exact i32 %2, %add11
  %and13 = and i32 %shr12, 62
  %idxprom14 = zext nneg i32 %and13 to i64
  %arrayidx15 = getelementptr inbounds i8, ptr @.str.1, i64 %idxprom14
  %3 = load i8, ptr %arrayidx15, align 1
  invoke void @_ZNSt7__cxx1112basic_stringIcSt11char_traitsIcESaIcEE9push_backEc(ptr noundef nonnull align 8 dereferenceable(32) %agg.result, i8 noundef signext %3)
          to label %while.cond17.preheader unwind label %lpad.loopexit.split-lp.loopexit.split-lp

while.cond17.preheader:                           ; preds = %invoke.cont, %if.then, %for.end
  br label %while.cond17

while.cond17:                                     ; preds = %while.cond17.preheader, %while.body19
  %call18 = tail call noundef i64 @_ZNKSt7__cxx1112basic_stringIcSt11char_traitsIcESaIcEE4sizeEv(ptr noundef nonnull align 8 dereferenceable(32) %agg.result) #37
  %rem = and i64 %call18, 3
  %tobool.not = icmp eq i64 %rem, 0
  br i1 %tobool.not, label %nrvo.skipdtor, label %while.body19

while.body19:                                     ; preds = %while.cond17
  invoke void @_ZNSt7__cxx1112basic_stringIcSt11char_traitsIcESaIcEE9push_backEc(ptr noundef nonnull align 8 dereferenceable(32) %agg.result, i8 noundef signext 61)
          to label %while.cond17 unwind label %lpad.loopexit, !llvm.loop !8

nrvo.skipdtor:                                    ; preds = %while.cond17
  ret void
}